; Function Attrs: mustprogress nounwind uwtable
define internal void @_ZN12_GLOBAL__N_113FalkorHWPFFixD2Ev(ptr noundef nonnull align 8 dereferenceable(97) initializes((0, 8)) %0) unnamed_addr #0 align 2 {
  store ptr getelementptr inbounds nuw inrange(-16, 176) (i8, ptr @_ZTVN12_GLOBAL__N_113FalkorHWPFFixE, i64 16), ptr %0, align 8
  %2 = getelementptr inbounds nuw i8, ptr %0, i64 72
  %3 = getelementptr inbounds nuw i8, ptr %0, i64 88
  %4 = load i32, ptr %3, align 8
  %5 = icmp eq i32 %4, 0
  %.pre1.i = load ptr, ptr %2, align 8
  br i1 %5, label %_ZN4llvm8DenseMapIjNS_11SmallVectorIPNS_12MachineInstrELj4EEENS_12DenseMapInfoIjvEENS_6detail12DenseMapPairIjS4_EEED2Ev.exit, label %.lr.ph.preheader.i.i

.lr.ph.preheader.i.i:                             ; preds = %1
  %6 = zext i32 %4 to i64
  %7 = getelementptr inbounds nuw %"struct.llvm::detail::DenseMapPair.360", ptr %.pre1.i, i64 %6
  br label %.lr.ph.i.i

.lr.ph.i.i:                                       ; preds = %_ZN4llvm11SmallVectorIPNS_12MachineInstrELj4EED2Ev.exit.i.i, %.lr.ph.preheader.i.i
  %.010.i.i = phi ptr [ %16, %_ZN4llvm11SmallVectorIPNS_12MachineInstrELj4EED2Ev.exit.i.i ], [ %.pre1.i, %.lr.ph.preheader.i.i ]
  %8 = load i32, ptr %.010.i.i, align 4
  %switch.i.i = icmp ugt i32 %8, -3
  br i1 %switch.i.i, label %_ZN4llvm11SmallVectorIPNS_12MachineInstrELj4EED2Ev.exit.i.i, label %9

9:                                                ; preds = %.lr.ph.i.i
  %10 = getelementptr inbounds nuw i8, ptr %.010.i.i, i64 8
  %11 = tail call noundef i64 @_ZNK4llvm15SmallVectorBaseIjE4sizeEv(ptr noundef nonnull align 8 dereferenceable(48) %10) #18
  %12 = load ptr, ptr %10, align 8
  %13 = getelementptr inbounds nuw i8, ptr %.010.i.i, i64 24
  %14 = icmp eq ptr %12, %13
  br i1 %14, label %_ZN4llvm11SmallVectorIPNS_12MachineInstrELj4EED2Ev.exit.i.i, label %15

15:                                               ; preds = %9
  tail call void @free(ptr noundef %12) #18
  br label %_ZN4llvm11SmallVectorIPNS_12MachineInstrELj4EED2Ev.exit.i.i

_ZN4llvm11SmallVectorIPNS_12MachineInstrELj4EED2Ev.exit.i.i: ; preds = %15, %9, %.lr.ph.i.i
  %16 = getelementptr inbounds nuw i8, ptr %.010.i.i, i64 56
  %.not.i.i = icmp eq ptr %16, %7
  br i1 %.not.i.i, label %_ZN4llvm12DenseMapBaseINS_8DenseMapIjNS_11SmallVectorIPNS_12MachineInstrELj4EEENS_12DenseMapInfoIjvEENS_6detail12DenseMapPairIjS5_EEEEjS5_S7_SA_E10destroyAllEv.exit.loopexit.i, label %.lr.ph.i.i, !llvm.loop !50

_ZN4llvm12DenseMapBaseINS_8DenseMapIjNS_11SmallVectorIPNS_12MachineInstrELj4EEENS_12DenseMapInfoIjvEENS_6detail12DenseMapPairIjS5_EEEEjS5_S7_SA_E10destroyAllEv.exit.loopexit.i: ; preds = %_ZN4llvm11SmallVectorIPNS_12MachineInstrELj4EED2Ev.exit.i.i
  %.pre.i = load ptr, ptr %2, align 8
  %.pre2.i = load i32, ptr %3, align 8
  %17 = zext i32 %.pre2.i to i64
  %18 = mul nuw nsw i64 %17, 56
  br label %_ZN4llvm8DenseMapIjNS_11SmallVectorIPNS_12MachineInstrELj4EEENS_12DenseMapInfoIjvEENS_6detail12DenseMapPairIjS4_EEED2Ev.exit

_ZN4llvm8DenseMapIjNS_11SmallVectorIPNS_12MachineInstrELj4EEENS_12DenseMapInfoIjvEENS_6detail12DenseMapPairIjS4_EEED2Ev.exit: ; preds = %1, %_ZN4llvm12DenseMapBaseINS_8DenseMapIjNS_11SmallVectorIPNS_12MachineInstrELj4EEENS_12DenseMapInfoIjvEENS_6detail12DenseMapPairIjS5_EEEEjS5_S7_SA_E10destroyAllEv.exit.loopexit.i
  %19 = phi i64 [ %18, %_ZN4llvm12DenseMapBaseINS_8DenseMapIjNS_11SmallVectorIPNS_12MachineInstrELj4EEENS_12DenseMapInfoIjvEENS_6detail12DenseMapPairIjS5_EEEEjS5_S7_SA_E10destroyAllEv.exit.loopexit.i ], [ 0, %1 ]
  %20 = phi ptr [ %.pre.i, %_ZN4llvm12DenseMapBaseINS_8DenseMapIjNS_11SmallVectorIPNS_12MachineInstrELj4EEENS_12DenseMapInfoIjvEENS_6detail12DenseMapPairIjS5_EEEEjS5_S7_SA_E10destroyAllEv.exit.loopexit.i ], [ %.pre1.i, %1 ]
  tail call void @_ZN4llvm17deallocate_bufferEPvmm(ptr noundef %20, i64 noundef %19, i64 noundef 8) #18
  tail call void @_ZN4llvm4PassD2Ev(ptr noundef nonnull align 8 dereferenceable(56) %0) #18
  ret void
}